target datalayout = "e-m:e-p270:32:32-p271:32:32-p272:64:64-i64:64-i128:128-f80:128-n8:16:32:64-S128"
target triple = "x86_64-pc-linux-gnu"

%"class.__gnu_cxx::__normal_iterator" = type { ptr }
%"class.clang::ExternalASTMerger" = type { %"class.clang::ExternalASTSource", %"class.std::vector", %"class.std::map", ptr, %"struct.clang::ExternalASTMerger::ImporterTarget", %"class.std::shared_ptr" }
%"class.clang::ExternalASTSource" = type { ptr, %"class.llvm::RefCountedBase", i32 }
%"class.llvm::RefCountedBase" = type { i32 }
%"class.std::vector" = type { %"struct.std::_Vector_base" }
%"struct.std::_Vector_base" = type { %"struct.std::_Vector_base<std::unique_ptr<clang::ASTImporter>, std::allocator<std::unique_ptr<clang::ASTImporter>>>::_Vector_impl" }
%"struct.std::_Vector_base<std::unique_ptr<clang::ASTImporter>, std::allocator<std::unique_ptr<clang::ASTImporter>>>::_Vector_impl" = type { %"struct.std::_Vector_base<std::unique_ptr<clang::ASTImporter>, std::allocator<std::unique_ptr<clang::ASTImporter>>>::_Vector_impl_data" }
%"struct.std::_Vector_base<std::unique_ptr<clang::ASTImporter>, std::allocator<std::unique_ptr<clang::ASTImporter>>>::_Vector_impl_data" = type { ptr, ptr, ptr }
%"class.std::map" = type { %"class.std::_Rb_tree" }
%"class.std::_Rb_tree" = type { %"struct.std::_Rb_tree<const clang::DeclContext *, std::pair<const clang::DeclContext *const, clang::ExternalASTMerger::DCOrigin>, std::_Select1st<std::pair<const clang::DeclContext *const, clang::ExternalASTMerger::DCOrigin>>, std::less<const clang::DeclContext *>>::_Rb_tree_impl" }
%"struct.std::_Rb_tree<const clang::DeclContext *, std::pair<const clang::DeclContext *const, clang::ExternalASTMerger::DCOrigin>, std::_Select1st<std::pair<const clang::DeclContext *const, clang::ExternalASTMerger::DCOrigin>>, std::less<const clang::DeclContext *>>::_Rb_tree_impl" = type { [8 x i8], %"struct.std::_Rb_tree_header" }
%"struct.std::_Rb_tree_header" = type { %"struct.std::_Rb_tree_node_base", i64 }
%"struct.std::_Rb_tree_node_base" = type { i32, ptr, ptr, ptr }
%"struct.clang::ExternalASTMerger::ImporterTarget" = type { ptr, ptr }
%"class.std::shared_ptr" = type { %"class.std::__shared_ptr" }
%"class.std::__shared_ptr" = type { ptr, %"class.std::__shared_count" }
%"class.std::__shared_count" = type { ptr }
%"class.clang::ASTImporter" = type { ptr, %"class.std::shared_ptr", %"class.clang::ASTImporter::ImportPathTy", %"class.llvm::SmallDenseMap.5", ptr, ptr, ptr, ptr, i8, i32, i8, [7 x i8], %"class.llvm::DenseMap", %"class.llvm::DenseMap.9", %"class.llvm::DenseMap.12", %"class.llvm::DenseMap.9", %"class.llvm::DenseMap.15", %"class.llvm::DenseMap.18", %"class.llvm::DenseMap.21", %"class.llvm::DenseSet" }
%"class.clang::ASTImporter::ImportPathTy" = type { %"class.llvm::SmallVector", %"class.llvm::SmallDenseMap" }
%"class.llvm::SmallVector" = type { %"class.llvm::SmallVectorImpl", %"struct.llvm::SmallVectorStorage" }
%"class.llvm::SmallVectorImpl" = type { %"class.llvm::SmallVectorTemplateBase" }
%"class.llvm::SmallVectorTemplateBase" = type { %"class.llvm::SmallVectorTemplateCommon" }
%"class.llvm::SmallVectorTemplateCommon" = type { %"class.llvm::SmallVectorBase" }
%"class.llvm::SmallVectorBase" = type { ptr, i32, i32 }
%"struct.llvm::SmallVectorStorage" = type { [256 x i8] }
%"class.llvm::SmallDenseMap" = type { i32, i32, %"struct.llvm::AlignedCharArrayUnion" }
%"struct.llvm::AlignedCharArrayUnion" = type { [512 x i8] }
%"class.llvm::SmallDenseMap.5" = type { i32, i32, %"struct.llvm::AlignedCharArrayUnion.7" }
%"struct.llvm::AlignedCharArrayUnion.7" = type { [279296 x i8] }
%"class.llvm::DenseMap" = type <{ ptr, i32, i32, i32, [4 x i8] }>
%"class.llvm::DenseMap.12" = type <{ ptr, i32, i32, i32, [4 x i8] }>
%"class.llvm::DenseMap.9" = type <{ ptr, i32, i32, i32, [4 x i8] }>
%"class.llvm::DenseMap.15" = type <{ ptr, i32, i32, i32, [4 x i8] }>
%"class.llvm::DenseMap.18" = type <{ ptr, i32, i32, i32, [4 x i8] }>
%"class.llvm::DenseMap.21" = type <{ ptr, i32, i32, i32, [4 x i8] }>
%"class.llvm::DenseSet" = type { %"class.llvm::detail::DenseSetImpl" }
%"class.llvm::detail::DenseSetImpl" = type { %"class.llvm::DenseMap.24" }
%"class.llvm::DenseMap.24" = type <{ ptr, i32, i32, i32, [4 x i8] }>
%"class.std::unique_ptr" = type { %"struct.std::__uniq_ptr_data" }
%"struct.std::__uniq_ptr_data" = type { %"class.std::__uniq_ptr_impl" }
%"class.std::__uniq_ptr_impl" = type { %"class.std::tuple" }
%"class.std::tuple" = type { %"struct.std::_Tuple_impl" }
%"struct.std::_Tuple_impl" = type { %"struct.std::_Head_base.4" }
%"struct.std::_Head_base.4" = type { ptr }
%"struct.clang::ExternalASTMerger::DCOrigin" = type { ptr, ptr }

; Function Attrs: mustprogress nounwind uwtable
define linkonce_odr hidden noundef nonnull align 8 dereferenceable(8) ptr @_ZNSt10_Head_baseILm0EPN5clang11ASTImporterELb0EE7_M_headERKS3_(ptr noundef nonnull align 8 dereferenceable(8) %0) #0 comdat align 2 {
  %2 = alloca ptr, align 8
  store ptr %0, ptr %2, align 8
  %3 = load ptr, ptr %2, align 8
  %4 = getelementptr inbounds nuw %"struct.std::_Head_base.4", ptr %3, i32 0, i32 0
  ret ptr %4
}

; Function Attrs: mustprogress nounwind uwtable
define linkonce_odr hidden noundef nonnull align 8 dereferenceable(8) ptr @_ZNSt11_Tuple_implILm0EJPN5clang11ASTImporterESt14default_deleteIS1_EEE7_M_headERKS5_(ptr noundef nonnull align 8 dereferenceable(8) %0) #0 comdat align 2 {
  %2 = alloca ptr, align 8
  store ptr %0, ptr %2, align 8
  %3 = load ptr, ptr %2, align 8
  %4 = call noundef nonnull align 8 dereferenceable(8) ptr @_ZNSt10_Head_baseILm0EPN5clang11ASTImporterELb0EE7_M_headERKS3_(ptr noundef nonnull align 8 dereferenceable(8) %3) #11
  ret ptr %4
}

; Function Attrs: mustprogress nounwind uwtable
define linkonce_odr noundef nonnull align 8 dereferenceable(8) ptr @_ZSt12__get_helperILm0EPN5clang11ASTImporterEJSt14default_deleteIS1_EEERKT0_RKSt11_Tuple_implIXT_EJS5_DpT1_EE(ptr noundef nonnull align 8 dereferenceable(8) %0) #0 comdat {
  %2 = alloca ptr, align 8
  store ptr %0, ptr %2, align 8
  %3 = load ptr, ptr %2, align 8
  %4 = call noundef nonnull align 8 dereferenceable(8) ptr @_ZNSt11_Tuple_implILm0EJPN5clang11ASTImporterESt14default_deleteIS1_EEE7_M_headERKS5_(ptr noundef nonnull align 8 dereferenceable(8) %3) #11
  ret ptr %4
}

; Function Attrs: mustprogress nounwind uwtable
define linkonce_odr hidden noundef ptr @_ZN5clang25cast_convert_decl_contextINS_4DeclELb0EE4doitEPKNS_11DeclContextE(ptr noundef %0) #0 comdat align 2 {
  %2 = alloca ptr, align 8
  store ptr %0, ptr %2, align 8
  %3 = load ptr, ptr %2, align 8
  %4 = call noundef ptr @_ZN5clang4Decl19castFromDeclContextEPKNS_11DeclContextE(ptr noundef %3)
  ret ptr %4
}

; Function Attrs: mustprogress nounwind uwtable
define linkonce_odr hidden noundef ptr @_ZN5clang25cast_convert_decl_contextINS_4DeclELb0EE4doitEPNS_11DeclContextE(ptr noundef %0) #0 comdat align 2 {
  %2 = alloca ptr, align 8
  store ptr %0, ptr %2, align 8
  %3 = load ptr, ptr %2, align 8
  %4 = call noundef ptr @_ZN5clang4Decl19castFromDeclContextEPKNS_11DeclContextE(ptr noundef %3)
  ret ptr %4
}

; Function Attrs: mustprogress nounwind uwtable
define linkonce_odr noundef nonnull align 8 dereferenceable(8) ptr @_ZSt3getILm0EJPN5clang11ASTImporterESt14default_deleteIS1_EEERKNSt13tuple_elementIXT_ESt5tupleIJDpT0_EEE4typeERKS9_(ptr noundef nonnull align 8 dereferenceable(8) %0) #0 comdat {
  %2 = alloca ptr, align 8
  store ptr %0, ptr %2, align 8
  %3 = load ptr, ptr %2, align 8
  %4 = call noundef nonnull align 8 dereferenceable(8) ptr @_ZSt12__get_helperILm0EPN5clang11ASTImporterEJSt14default_deleteIS1_EEERKT0_RKSt11_Tuple_implIXT_EJS5_DpT1_EE(ptr noundef nonnull align 8 dereferenceable(8) %3) #11
  ret ptr %4
}

; Function Attrs: mustprogress nounwind uwtable
define linkonce_odr hidden noundef ptr @_ZN4llvm16cast_convert_valIN5clang4DeclEPKNS1_11DeclContextES5_E4doitES5_(ptr noundef %0) #0 comdat align 2 {
  %2 = alloca ptr, align 8
  store ptr %0, ptr %2, align 8
  %3 = load ptr, ptr %2, align 8
  %4 = call noundef ptr @_ZN5clang25cast_convert_decl_contextINS_4DeclELb0EE4doitEPKNS_11DeclContextE(ptr noundef %3)
  ret ptr %4
}

; Function Attrs: mustprogress nounwind uwtable
define linkonce_odr hidden noundef ptr @_ZN4llvm16cast_convert_valIN5clang4DeclEPNS1_11DeclContextES4_E4doitES4_(ptr noundef %0) #0 comdat align 2 {
  %2 = alloca ptr, align 8
  store ptr %0, ptr %2, align 8
  %3 = load ptr, ptr %2, align 8
  %4 = call noundef ptr @_ZN5clang25cast_convert_decl_contextINS_4DeclELb0EE4doitEPNS_11DeclContextE(ptr noundef %3)
  ret ptr %4
}

; Function Attrs: mustprogress nounwind uwtable
define linkonce_odr hidden noundef ptr @_ZNKSt15__uniq_ptr_implIN5clang11ASTImporterESt14default_deleteIS1_EE6_M_ptrEv(ptr noundef nonnull align 8 dereferenceable(8) %0) #0 comdat align 2 {
  %2 = alloca ptr, align 8
  store ptr %0, ptr %2, align 8
  %3 = load ptr, ptr %2, align 8
  %4 = getelementptr inbounds nuw %"class.std::__uniq_ptr_impl", ptr %3, i32 0, i32 0
  %5 = call noundef nonnull align 8 dereferenceable(8) ptr @_ZSt3getILm0EJPN5clang11ASTImporterESt14default_deleteIS1_EEERKNSt13tuple_elementIXT_ESt5tupleIJDpT0_EEE4typeERKS9_(ptr noundef nonnull align 8 dereferenceable(8) %4) #11
  %6 = load ptr, ptr %5, align 8
  ret ptr %6
}

; Function Attrs: mustprogress nounwind uwtable
define linkonce_odr hidden noundef ptr @_ZN4llvm8CastInfoIN5clang4DeclEPKNS1_11DeclContextEvE6doCastERKS5_(ptr noundef nonnull align 8 dereferenceable(8) %0) #0 comdat align 2 {
  %2 = alloca ptr, align 8
  store ptr %0, ptr %2, align 8
  %3 = load ptr, ptr %2, align 8
  %4 = load ptr, ptr %3, align 8
  %5 = call noundef ptr @_ZN4llvm16cast_convert_valIN5clang4DeclEPKNS1_11DeclContextES5_E4doitES5_(ptr noundef %4)
  ret ptr %5
}

; Function Attrs: mustprogress nounwind uwtable
define linkonce_odr hidden noundef ptr @_ZN4llvm8CastInfoIN5clang4DeclEPNS1_11DeclContextEvE6doCastERKS4_(ptr noundef nonnull align 8 dereferenceable(8) %0) #0 comdat align 2 {
  %2 = alloca ptr, align 8
  store ptr %0, ptr %2, align 8
  %3 = load ptr, ptr %2, align 8
  %4 = load ptr, ptr %3, align 8
  %5 = call noundef ptr @_ZN4llvm16cast_convert_valIN5clang4DeclEPNS1_11DeclContextES4_E4doitES4_(ptr noundef %4)
  ret ptr %5
}

; Function Attrs: mustprogress nounwind uwtable
define linkonce_odr hidden noundef ptr @_ZNKSt10unique_ptrIN5clang11ASTImporterESt14default_deleteIS1_EE3getEv(ptr noundef nonnull align 8 dereferenceable(8) %0) #0 comdat align 2 {
  %2 = alloca ptr, align 8
  store ptr %0, ptr %2, align 8
  %3 = load ptr, ptr %2, align 8
  %4 = getelementptr inbounds nuw %"class.std::unique_ptr", ptr %3, i32 0, i32 0
  %5 = call noundef ptr @_ZNKSt15__uniq_ptr_implIN5clang11ASTImporterESt14default_deleteIS1_EE6_M_ptrEv(ptr noundef nonnull align 8 dereferenceable(8) %4) #11
  ret ptr %5
}

; Function Attrs: mustprogress nounwind uwtable
define linkonce_odr hidden noundef nonnull align 8 dereferenceable(8) ptr @_ZNK9__gnu_cxx17__normal_iteratorIPSt10unique_ptrIN5clang11ASTImporterESt14default_deleteIS3_EESt6vectorIS6_SaIS6_EEE4baseEv(ptr noundef nonnull align 8 dereferenceable(8) %0) #0 comdat align 2 {
  %2 = alloca ptr, align 8
  store ptr %0, ptr %2, align 8
  %3 = load ptr, ptr %2, align 8
  %4 = getelementptr inbounds nuw %"class.__gnu_cxx::__normal_iterator", ptr %3, i32 0, i32 0
  ret ptr %4
}

; Function Attrs: mustprogress nounwind uwtable
define linkonce_odr hidden void @_ZN9__gnu_cxx17__normal_iteratorIPSt10unique_ptrIN5clang11ASTImporterESt14default_deleteIS3_EESt6vectorIS6_SaIS6_EEEC2ERKS7_(ptr noundef nonnull align 8 dereferenceable(8) %0, ptr noundef nonnull align 8 dereferenceable(8) %1) unnamed_addr #0 comdat align 2 {
  %3 = alloca ptr, align 8
  %4 = alloca ptr, align 8
  store ptr %0, ptr %3, align 8
  store ptr %1, ptr %4, align 8
  %5 = load ptr, ptr %3, align 8
  %6 = getelementptr inbounds nuw %"class.__gnu_cxx::__normal_iterator", ptr %5, i32 0, i32 0
  %7 = load ptr, ptr %4, align 8
  %8 = load ptr, ptr %7, align 8
  store ptr %8, ptr %6, align 8
  ret void
}

; Function Attrs: mustprogress nounwind uwtable
define linkonce_odr hidden noundef ptr @_ZN4llvm4castIN5clang4DeclEKNS1_11DeclContextEEEDcPT0_(ptr noundef %0) #0 comdat {
  %2 = alloca ptr, align 8
  store ptr %0, ptr %2, align 8
  %3 = call noundef ptr @_ZN4llvm8CastInfoIN5clang4DeclEPKNS1_11DeclContextEvE6doCastERKS5_(ptr noundef nonnull align 8 dereferenceable(8) %2)
  ret ptr %3
}

; Function Attrs: mustprogress nounwind uwtable
define linkonce_odr hidden noundef ptr @_ZN4llvm4castIN5clang4DeclENS1_11DeclContextEEEDcPT0_(ptr noundef %0) #0 comdat {
  %2 = alloca ptr, align 8
  store ptr %0, ptr %2, align 8
  %3 = call noundef ptr @_ZN4llvm8CastInfoIN5clang4DeclEPNS1_11DeclContextEvE6doCastERKS4_(ptr noundef nonnull align 8 dereferenceable(8) %2)
  ret ptr %3
}

; Function Attrs: mustprogress nounwind uwtable
define linkonce_odr hidden noundef nonnull align 8 dereferenceable(8) ptr @_ZN9__gnu_cxx17__normal_iteratorIPSt10unique_ptrIN5clang11ASTImporterESt14default_deleteIS3_EESt6vectorIS6_SaIS6_EEEppEv(ptr noundef nonnull align 8 dereferenceable(8) %0) #0 comdat align 2 {
  %2 = alloca ptr, align 8
  store ptr %0, ptr %2, align 8
  %3 = load ptr, ptr %2, align 8
  %4 = getelementptr inbounds nuw %"class.__gnu_cxx::__normal_iterator", ptr %3, i32 0, i32 0
  %5 = load ptr, ptr %4, align 8
  %6 = getelementptr inbounds %"class.std::unique_ptr", ptr %5, i32 1
  store ptr %6, ptr %4, align 8
  ret ptr %3
}

; Function Attrs: mustprogress nounwind uwtable
define linkonce_odr hidden noundef nonnull align 8 dereferenceable(280360) ptr @_ZNKSt10unique_ptrIN5clang11ASTImporterESt14default_deleteIS1_EEdeEv(ptr noundef nonnull align 8 dereferenceable(8) %0) #0 comdat align 2 {
  %2 = alloca ptr, align 8
  store ptr %0, ptr %2, align 8
  %3 = load ptr, ptr %2, align 8
  br label %4

4:                                                ; preds = %1
  br label %5

5:                                                ; preds = %4
  %6 = call noundef ptr @_ZNKSt10unique_ptrIN5clang11ASTImporterESt14default_deleteIS1_EE3getEv(ptr noundef nonnull align 8 dereferenceable(8) %3) #11
  ret ptr %6
}

; Function Attrs: mustprogress nounwind uwtable
define linkonce_odr hidden noundef nonnull align 8 dereferenceable(23096) ptr @_ZNK5clang11ASTImporter14getFromContextEv(ptr noundef nonnull align 8 dereferenceable(280360) %0) #0 comdat align 2 {
  %2 = alloca ptr, align 8
  store ptr %0, ptr %2, align 8
  %3 = load ptr, ptr %2, align 8
  %4 = getelementptr inbounds nuw %"class.clang::ASTImporter", ptr %3, i32 0, i32 5
  %5 = load ptr, ptr %4, align 8
  ret ptr %5
}

; Function Attrs: mustprogress nounwind uwtable
define linkonce_odr hidden noundef ptr @_ZNKSt10unique_ptrIN5clang11ASTImporterESt14default_deleteIS1_EEptEv(ptr noundef nonnull align 8 dereferenceable(8) %0) #0 comdat align 2 {
  %2 = alloca ptr, align 8
  store ptr %0, ptr %2, align 8
  %3 = load ptr, ptr %2, align 8
  %4 = call noundef ptr @_ZNKSt10unique_ptrIN5clang11ASTImporterESt14default_deleteIS1_EE3getEv(ptr noundef nonnull align 8 dereferenceable(8) %3) #11
  ret ptr %4
}

; Function Attrs: mustprogress nounwind uwtable
define linkonce_odr hidden noundef nonnull align 8 dereferenceable(8) ptr @_ZNK9__gnu_cxx17__normal_iteratorIPSt10unique_ptrIN5clang11ASTImporterESt14default_deleteIS3_EESt6vectorIS6_SaIS6_EEEdeEv(ptr noundef nonnull align 8 dereferenceable(8) %0) #0 comdat align 2 {
  %2 = alloca ptr, align 8
  store ptr %0, ptr %2, align 8
  %3 = load ptr, ptr %2, align 8
  %4 = getelementptr inbounds nuw %"class.__gnu_cxx::__normal_iterator", ptr %3, i32 0, i32 0
  %5 = load ptr, ptr %4, align 8
  ret ptr %5
}

; Function Attrs: mustprogress nounwind uwtable
define linkonce_odr noundef zeroext i1 @_ZN9__gnu_cxxneIPSt10unique_ptrIN5clang11ASTImporterESt14default_deleteIS3_EESt6vectorIS6_SaIS6_EEEEbRKNS_17__normal_iteratorIT_T0_EESG_(ptr noundef nonnull align 8 dereferenceable(8) %0, ptr noundef nonnull align 8 dereferenceable(8) %1) #0 comdat {
  %3 = alloca ptr, align 8
  %4 = alloca ptr, align 8
  store ptr %0, ptr %3, align 8
  store ptr %1, ptr %4, align 8
  %5 = load ptr, ptr %3, align 8
  %6 = call noundef nonnull align 8 dereferenceable(8) ptr @_ZNK9__gnu_cxx17__normal_iteratorIPSt10unique_ptrIN5clang11ASTImporterESt14default_deleteIS3_EESt6vectorIS6_SaIS6_EEE4baseEv(ptr noundef nonnull align 8 dereferenceable(8) %5) #11
  %7 = load ptr, ptr %6, align 8
  %8 = load ptr, ptr %4, align 8
  %9 = call noundef nonnull align 8 dereferenceable(8) ptr @_ZNK9__gnu_cxx17__normal_iteratorIPSt10unique_ptrIN5clang11ASTImporterESt14default_deleteIS3_EESt6vectorIS6_SaIS6_EEE4baseEv(ptr noundef nonnull align 8 dereferenceable(8) %8) #11
  %10 = load ptr, ptr %9, align 8
  %11 = icmp ne ptr %7, %10
  ret i1 %11
}

; Function Attrs: mustprogress nounwind uwtable
define linkonce_odr hidden ptr @_ZNSt6vectorISt10unique_ptrIN5clang11ASTImporterESt14default_deleteIS2_EESaIS5_EE3endEv(ptr noundef nonnull align 8 dereferenceable(24) %0) #0 comdat align 2 {
  %2 = alloca %"class.__gnu_cxx::__normal_iterator", align 8
  %3 = alloca ptr, align 8
  store ptr %0, ptr %3, align 8
  %4 = load ptr, ptr %3, align 8
  %5 = getelementptr inbounds nuw %"struct.std::_Vector_base", ptr %4, i32 0, i32 0
  %6 = getelementptr inbounds nuw %"struct.std::_Vector_base<std::unique_ptr<clang::ASTImporter>, std::allocator<std::unique_ptr<clang::ASTImporter>>>::_Vector_impl_data", ptr %5, i32 0, i32 1
  call void @_ZN9__gnu_cxx17__normal_iteratorIPSt10unique_ptrIN5clang11ASTImporterESt14default_deleteIS3_EESt6vectorIS6_SaIS6_EEEC2ERKS7_(ptr noundef nonnull align 8 dereferenceable(8) %2, ptr noundef nonnull align 8 dereferenceable(8) %6) #11
  %7 = getelementptr inbounds nuw %"class.__gnu_cxx::__normal_iterator", ptr %2, i32 0, i32 0
  %8 = load ptr, ptr %7, align 8
  ret ptr %8
}

; Function Attrs: mustprogress nounwind uwtable
define linkonce_odr hidden ptr @_ZNSt6vectorISt10unique_ptrIN5clang11ASTImporterESt14default_deleteIS2_EESaIS5_EE5beginEv(ptr noundef nonnull align 8 dereferenceable(24) %0) #0 comdat align 2 {
  %2 = alloca %"class.__gnu_cxx::__normal_iterator", align 8
  %3 = alloca ptr, align 8
  store ptr %0, ptr %3, align 8
  %4 = load ptr, ptr %3, align 8
  %5 = getelementptr inbounds nuw %"struct.std::_Vector_base", ptr %4, i32 0, i32 0
  %6 = getelementptr inbounds nuw %"struct.std::_Vector_base<std::unique_ptr<clang::ASTImporter>, std::allocator<std::unique_ptr<clang::ASTImporter>>>::_Vector_impl_data", ptr %5, i32 0, i32 0
  call void @_ZN9__gnu_cxx17__normal_iteratorIPSt10unique_ptrIN5clang11ASTImporterESt14default_deleteIS3_EESt6vectorIS6_SaIS6_EEEC2ERKS7_(ptr noundef nonnull align 8 dereferenceable(8) %2, ptr noundef nonnull align 8 dereferenceable(8) %6) #11
  %7 = getelementptr inbounds nuw %"class.__gnu_cxx::__normal_iterator", ptr %2, i32 0, i32 0
  %8 = load ptr, ptr %7, align 8
  ret ptr %8
}

; Function Attrs: mustprogress nounwind uwtable
define dso_local void @_ZN5clang17ExternalASTMerger16RecordOriginImplEPKNS_11DeclContextENS0_8DCOriginERNS_11ASTImporterE(ptr noundef nonnull align 8 dereferenceable(128) %0, ptr noundef %1, ptr %2, ptr %3, ptr noundef nonnull align 8 dereferenceable(280360) %4) #0 align 2 {
  %6 = alloca %"struct.clang::ExternalASTMerger::DCOrigin", align 8
  %7 = alloca ptr, align 8
  %8 = alloca ptr, align 8
  %9 = alloca ptr, align 8
  %10 = getelementptr inbounds nuw { ptr, ptr }, ptr %6, i32 0, i32 0
  store ptr %2, ptr %10, align 8
  %11 = getelementptr inbounds nuw { ptr, ptr }, ptr %6, i32 0, i32 1
  store ptr %3, ptr %11, align 8
  store ptr %0, ptr %7, align 8
  store ptr %1, ptr %8, align 8
  store ptr %4, ptr %9, align 8
  %12 = load ptr, ptr %7, align 8
  %13 = getelementptr inbounds nuw %"class.clang::ExternalASTMerger", ptr %12, i32 0, i32 2
  %14 = call noundef nonnull align 8 dereferenceable(16) ptr @_ZNSt3mapIPKN5clang11DeclContextENS0_17ExternalASTMerger8DCOriginESt4lessIS3_ESaISt4pairIKS3_S5_EEEixERS9_(ptr noundef nonnull align 8 dereferenceable(48) %13, ptr noundef nonnull align 8 dereferenceable(8) %8)
  call void @llvm.memcpy.p0.p0.i64(ptr align 8 %14, ptr align 8 %6, i64 16, i1 false)
  %15 = load ptr, ptr %9, align 8
  %16 = getelementptr inbounds nuw %"struct.clang::ExternalASTMerger::DCOrigin", ptr %6, i32 0, i32 0
  %17 = load ptr, ptr %16, align 8
  %18 = call noundef ptr @_ZN4llvm4castIN5clang4DeclENS1_11DeclContextEEEDcPT0_(ptr noundef %17)
  %19 = load ptr, ptr %8, align 8
  %20 = call noundef ptr @_ZN4llvm4castIN5clang4DeclEKNS1_11DeclContextEEEDcPT0_(ptr noundef %19)
  %21 = call noundef ptr @_ZN5clang11ASTImporter11MapImportedEPNS_4DeclES2_(ptr noundef nonnull align 8 dereferenceable(280360) %15, ptr noundef %18, ptr noundef %20)
  ret void
}

; Function Attrs: mustprogress nounwind uwtable
define dso_local noundef nonnull align 8 dereferenceable(280360) ptr @_ZN5clang17ExternalASTMerger17ImporterForOriginERNS_10ASTContextE(ptr noundef nonnull align 8 dereferenceable(128) %0, ptr noundef nonnull align 8 dereferenceable(23096) %1) #0 align 2 {
  %3 = alloca ptr, align 8
  %4 = alloca ptr, align 8
  %5 = alloca ptr, align 8
  %6 = alloca %"class.__gnu_cxx::__normal_iterator", align 8
  %7 = alloca %"class.__gnu_cxx::__normal_iterator", align 8
  %8 = alloca ptr, align 8
  store ptr %0, ptr %3, align 8
  store ptr %1, ptr %4, align 8
  %9 = load ptr, ptr %3, align 8
  %10 = getelementptr inbounds nuw %"class.clang::ExternalASTMerger", ptr %9, i32 0, i32 1
  store ptr %10, ptr %5, align 8
  %11 = load ptr, ptr %5, align 8
  %12 = call ptr @_ZNSt6vectorISt10unique_ptrIN5clang11ASTImporterESt14default_deleteIS2_EESaIS5_EE5beginEv(ptr noundef nonnull align 8 dereferenceable(24) %11) #11
  %13 = getelementptr inbounds nuw %"class.__gnu_cxx::__normal_iterator", ptr %6, i32 0, i32 0
  store ptr %12, ptr %13, align 8
  %14 = load ptr, ptr %5, align 8
  %15 = call ptr @_ZNSt6vectorISt10unique_ptrIN5clang11ASTImporterESt14default_deleteIS2_EESaIS5_EE3endEv(ptr noundef nonnull align 8 dereferenceable(24) %14) #11
  %16 = getelementptr inbounds nuw %"class.__gnu_cxx::__normal_iterator", ptr %7, i32 0, i32 0
  store ptr %15, ptr %16, align 8
  br label %17

17:                                               ; preds = %30, %2
  %18 = call noundef zeroext i1 @_ZN9__gnu_cxxneIPSt10unique_ptrIN5clang11ASTImporterESt14default_deleteIS3_EESt6vectorIS6_SaIS6_EEEEbRKNS_17__normal_iteratorIT_T0_EESG_(ptr noundef nonnull align 8 dereferenceable(8) %6, ptr noundef nonnull align 8 dereferenceable(8) %7) #11
  br i1 %18, label %19, label %32

19:                                               ; preds = %17
  %20 = call noundef nonnull align 8 dereferenceable(8) ptr @_ZNK9__gnu_cxx17__normal_iteratorIPSt10unique_ptrIN5clang11ASTImporterESt14default_deleteIS3_EESt6vectorIS6_SaIS6_EEEdeEv(ptr noundef nonnull align 8 dereferenceable(8) %6) #11
  store ptr %20, ptr %8, align 8
  %21 = load ptr, ptr %8, align 8
  %22 = call noundef ptr @_ZNKSt10unique_ptrIN5clang11ASTImporterESt14default_deleteIS1_EEptEv(ptr noundef nonnull align 8 dereferenceable(8) %21) #11
  %23 = call noundef nonnull align 8 dereferenceable(23096) ptr @_ZNK5clang11ASTImporter14getFromContextEv(ptr noundef nonnull align 8 dereferenceable(280360) %22)
  %24 = load ptr, ptr %4, align 8
  %25 = icmp eq ptr %23, %24
  br i1 %25, label %26, label %29

26:                                               ; preds = %19
  %27 = load ptr, ptr %8, align 8
  %28 = call noundef nonnull align 8 dereferenceable(280360) ptr @_ZNKSt10unique_ptrIN5clang11ASTImporterESt14default_deleteIS1_EEdeEv(ptr noundef nonnull align 8 dereferenceable(8) %27) #11
  ret ptr %28

29:                                               ; preds = %19
  br label %30

30:                                               ; preds = %29
  %31 = call noundef nonnull align 8 dereferenceable(8) ptr @_ZN9__gnu_cxx17__normal_iteratorIPSt10unique_ptrIN5clang11ASTImporterESt14default_deleteIS3_EESt6vectorIS6_SaIS6_EEEppEv(ptr noundef nonnull align 8 dereferenceable(8) %6) #11
  br label %17

32:                                               ; preds = %17
  unreachable
}

; Function Attrs: mustprogress nounwind uwtable
define dso_local void @_ZN5clang17ExternalASTMerger17ForceRecordOriginEPKNS_11DeclContextENS0_8DCOriginE(ptr noundef nonnull align 8 dereferenceable(128) %0, ptr noundef %1, ptr %2, ptr %3) #0 align 2 {
  %5 = alloca %"struct.clang::ExternalASTMerger::DCOrigin", align 8
  %6 = alloca ptr, align 8
  %7 = alloca ptr, align 8
  %8 = alloca %"struct.clang::ExternalASTMerger::DCOrigin", align 8
  %9 = getelementptr inbounds nuw { ptr, ptr }, ptr %5, i32 0, i32 0
  store ptr %2, ptr %9, align 8
  %10 = getelementptr inbounds nuw { ptr, ptr }, ptr %5, i32 0, i32 1
  store ptr %3, ptr %10, align 8
  store ptr %0, ptr %6, align 8
  store ptr %1, ptr %7, align 8
  %11 = load ptr, ptr %6, align 8
  %12 = load ptr, ptr %7, align 8
  call void @llvm.memcpy.p0.p0.i64(ptr align 8 %8, ptr align 8 %5, i64 16, i1 false)
  %13 = getelementptr inbounds nuw %"struct.clang::ExternalASTMerger::DCOrigin", ptr %5, i32 0, i32 1
  %14 = load ptr, ptr %13, align 8
  %15 = call noundef nonnull align 8 dereferenceable(280360) ptr @_ZN5clang17ExternalASTMerger17ImporterForOriginERNS_10ASTContextE(ptr noundef nonnull align 8 dereferenceable(128) %11, ptr noundef nonnull align 8 dereferenceable(23096) %14)
  %16 = getelementptr inbounds nuw { ptr, ptr }, ptr %8, i32 0, i32 0
  %17 = load ptr, ptr %16, align 8
  %18 = getelementptr inbounds nuw { ptr, ptr }, ptr %8, i32 0, i32 1
  %19 = load ptr, ptr %18, align 8
  call void @_ZN5clang17ExternalASTMerger16RecordOriginImplEPKNS_11DeclContextENS0_8DCOriginERNS_11ASTImporterE(ptr noundef nonnull align 8 dereferenceable(128) %11, ptr noundef %12, ptr %17, ptr %19, ptr noundef nonnull align 8 dereferenceable(280360) %15)
  ret void
}