; Function Attrs: mustprogress nounwind uwtable
define dso_local void @_ZN5clang17ExternalASTMerger17ForceRecordOriginEPKNS_11DeclContextENS0_8DCOriginE(ptr noundef nonnull align 8 dereferenceable(128) %0, ptr noundef %1, ptr %2, ptr %3) local_unnamed_addr #2 align 2 {
  %5 = alloca ptr, align 8
  %6 = getelementptr inbounds nuw i8, ptr %0, i64 16
  %7 = load ptr, ptr %6, align 8
  %8 = getelementptr inbounds i8, ptr %0, i64 24
  %9 = load ptr, ptr %8, align 8
  br label %10

10:                                               ; preds = %10, %4
  %.sroa.06.0.i = phi ptr [ %7, %4 ], [ %16, %10 ]
  %11 = icmp ne ptr %.sroa.06.0.i, %9
  tail call void @llvm.assume(i1 %11)
  %12 = load ptr, ptr %.sroa.06.0.i, align 8
  %13 = getelementptr inbounds nuw i8, ptr %12, i64 280128
  %14 = load ptr, ptr %13, align 8
  %15 = icmp eq ptr %14, %3
  %16 = getelementptr inbounds i8, ptr %.sroa.06.0.i, i64 8
  br i1 %15, label %_ZN5clang17ExternalASTMerger17ImporterForOriginERNS_10ASTContextE.exit, label %10

_ZN5clang17ExternalASTMerger17ImporterForOriginERNS_10ASTContextE.exit: ; preds = %10
  call void @llvm.lifetime.start.p0(i64 8, ptr nonnull %5)
  store ptr %1, ptr %5, align 8
  %17 = getelementptr inbounds nuw i8, ptr %0, i64 40
  %18 = call noundef nonnull align 8 dereferenceable(16) ptr @_ZNSt3mapIPKN5clang11DeclContextENS0_17ExternalASTMerger8DCOriginESt4lessIS3_ESaISt4pairIKS3_S5_EEEixERS9_(ptr noundef nonnull align 8 dereferenceable(48) %17, ptr noundef nonnull align 8 dereferenceable(8) %5)
  store ptr %2, ptr %18, align 8
  %.sroa.3.0..sroa_idx.i = getelementptr inbounds i8, ptr %18, i64 8
  store ptr %3, ptr %.sroa.3.0..sroa_idx.i, align 8
  %19 = call noundef ptr @_ZN5clang4Decl19castFromDeclContextEPKNS_11DeclContextE(ptr noundef %2) #17
  %20 = load ptr, ptr %5, align 8
  %21 = call noundef ptr @_ZN5clang4Decl19castFromDeclContextEPKNS_11DeclContextE(ptr noundef %20) #17
  %22 = call noundef ptr @_ZN5clang11ASTImporter11MapImportedEPNS_4DeclES2_(ptr noundef nonnull align 8 dereferenceable(280360) %12, ptr noundef %19, ptr noundef %21) #17
  call void @llvm.lifetime.end.p0(i64 8, ptr nonnull %5)
  ret void
}